; Function Attrs: mustprogress uwtable
define void @_ZN6icu_7512FixedDecimal4initEdil(ptr nocapture noundef nonnull align 8 dereferenceable(64) %this, double noundef %n, i32 noundef %v, i64 noundef %f) local_unnamed_addr #1 align 2 {
entry:
  %cmp.i.i = fcmp olt double %n, 0.000000e+00
  %conv.i.i = zext i1 %cmp.i.i to i8
  %isNegative.i.i = getelementptr inbounds i8, ptr %this, i64 61
  store i8 %conv.i.i, ptr %isNegative.i.i, align 1
  %0 = tail call double @llvm.fabs.f64(double %n)
  %source.i.i = getelementptr inbounds i8, ptr %this, i64 16
  store double %0, ptr %source.i.i, align 8
  %call.i.i = tail call signext i8 @uprv_isNaN_75(double noundef %0)
  %_isNaN.i.i = getelementptr inbounds i8, ptr %this, i64 62
  store i8 %call.i.i, ptr %_isNaN.i.i, align 2
  %1 = load double, ptr %source.i.i, align 8
  %call4.i.i = tail call signext i8 @uprv_isInfinite_75(double noundef %1)
  %_isInfinite.i.i = getelementptr inbounds i8, ptr %this, i64 63
  store i8 %call4.i.i, ptr %_isInfinite.i.i, align 1
  %exponent.i.i = getelementptr inbounds i8, ptr %this, i64 56
  store i32 0, ptr %exponent.i.i, align 8
  %2 = load i8, ptr %_isNaN.i.i, align 2
  %tobool.not.i.i = icmp eq i8 %2, 0
  %tobool10.not.i.i = icmp eq i8 %call4.i.i, 0
  %or.cond.i.i = select i1 %tobool.not.i.i, i1 %tobool10.not.i.i, i1 false
  br i1 %or.cond.i.i, label %if.end21.i.i, label %if.end21.thread.i.i

if.end21.thread.i.i:                              ; preds = %entry
  %intValue.i.i = getelementptr inbounds i8, ptr %this, i64 48
  store i64 0, ptr %intValue.i.i, align 8
  %_hasIntegerValue.i.i = getelementptr inbounds i8, ptr %this, i64 60
  store i8 0, ptr %_hasIntegerValue.i.i, align 4
  %visibleDecimalDigitCount8.i.i = getelementptr inbounds i8, ptr %this, i64 24
  store i32 0, ptr %visibleDecimalDigitCount8.i.i, align 8
  %decimalDigits9.i.i = getelementptr inbounds i8, ptr %this, i64 32
  store i64 0, ptr %decimalDigits9.i.i, align 8
  br label %_ZN6icu_7512FixedDecimal4initEdili.exit

if.end21.i.i:                                     ; preds = %entry
  %3 = load double, ptr %source.i.i, align 8
  %conv13.i.i = fptosi double %3 to i64
  %intValue14.i.i = getelementptr inbounds i8, ptr %this, i64 48
  store i64 %conv13.i.i, ptr %intValue14.i.i, align 8
  %conv17.i.i = sitofp i64 %conv13.i.i to double
  %cmp18.i.i = fcmp oeq double %3, %conv17.i.i
  %conv19.i.i = zext i1 %cmp18.i.i to i8
  %_hasIntegerValue20.i.i = getelementptr inbounds i8, ptr %this, i64 60
  store i8 %conv19.i.i, ptr %_hasIntegerValue20.i.i, align 4
  %visibleDecimalDigitCount.i.i = getelementptr inbounds i8, ptr %this, i64 24
  store i32 %v, ptr %visibleDecimalDigitCount.i.i, align 8
  %decimalDigits.i.i = getelementptr inbounds i8, ptr %this, i64 32
  store i64 %f, ptr %decimalDigits.i.i, align 8
  %cmp22.i.i = icmp eq i64 %f, 0
  br i1 %cmp22.i.i, label %_ZN6icu_7512FixedDecimal4initEdili.exit, label %while.cond.preheader.i.i

while.cond.preheader.i.i:                         ; preds = %if.end21.i.i
  %rem11.i.i = srem i64 %f, 10
  %cmp2512.i.i = icmp eq i64 %rem11.i.i, 0
  br i1 %cmp2512.i.i, label %while.body.i.i, label %_ZN6icu_7512FixedDecimal4initEdili.exit

while.body.i.i:                                   ; preds = %while.cond.preheader.i.i, %while.body.i.i
  %fdwtz.013.i.i = phi i64 [ %div.i.i, %while.body.i.i ], [ %f, %while.cond.preheader.i.i ]
  %div.i.i = sdiv i64 %fdwtz.013.i.i, 10
  %rem.i.i = srem i64 %div.i.i, 10
  %cmp25.i.i = icmp eq i64 %rem.i.i, 0
  br i1 %cmp25.i.i, label %while.body.i.i, label %_ZN6icu_7512FixedDecimal4initEdili.exit, !llvm.loop !51

_ZN6icu_7512FixedDecimal4initEdili.exit:          ; preds = %while.body.i.i, %if.end21.thread.i.i, %if.end21.i.i, %while.cond.preheader.i.i
  %fdwtz.0.lcssa.sink.i.i = phi i64 [ 0, %if.end21.thread.i.i ], [ 0, %if.end21.i.i ], [ %f, %while.cond.preheader.i.i ], [ %div.i.i, %while.body.i.i ]
  %decimalDigitsWithoutTrailingZeros26.i.i = getelementptr inbounds i8, ptr %this, i64 40
  store i64 %fdwtz.0.lcssa.sink.i.i, ptr %decimalDigitsWithoutTrailingZeros26.i.i, align 8
  ret void
}